target datalayout = "e-m:e-p270:32:32-p271:32:32-p272:64:64-i64:64-i128:128-f80:128-n8:16:32:64-S128"
target triple = "x86_64-unknown-linux-gnu"

%"struct.arrow::(anonymous namespace)::ExportedSchemaPrivateData" = type { %"class.std::__cxx11::basic_string", %"class.std::__cxx11::basic_string", %"class.std::__cxx11::basic_string", %struct.ArrowSchema, %"class.arrow::internal::StaticVectorImpl", %"class.arrow::internal::StaticVectorImpl.0" }
%"class.std::__cxx11::basic_string" = type { %"struct.std::__cxx11::basic_string<char>::_Alloc_hider", i64, %union.anon }
%"struct.std::__cxx11::basic_string<char>::_Alloc_hider" = type { ptr }
%union.anon = type { i64, [8 x i8] }
%struct.ArrowSchema = type { ptr, ptr, ptr, i64, i64, ptr, ptr, ptr, ptr }
%"class.arrow::internal::StaticVectorImpl" = type { %"struct.arrow::internal::SmallVectorStorage" }
%"struct.arrow::internal::SmallVectorStorage" = type { [1 x %"class.arrow::internal::AlignedStorage"], i64, ptr, i64 }
%"class.arrow::internal::AlignedStorage" = type { %"union.std::aligned_storage<72, 8>::type" }
%"union.std::aligned_storage<72, 8>::type" = type { [72 x i8] }
%"class.arrow::internal::StaticVectorImpl.0" = type { %"struct.arrow::internal::SmallVectorStorage.1" }
%"struct.arrow::internal::SmallVectorStorage.1" = type { [4 x %"class.arrow::internal::AlignedStorage.2"], i64, ptr, i64 }
%"class.arrow::internal::AlignedStorage.2" = type { %"union.std::aligned_storage<8, 8>::type" }
%"union.std::aligned_storage<8, 8>::type" = type { [8 x i8] }

; Function Attrs: mustprogress nounwind uwtable
define linkonce_odr noundef ptr @_ZSt7launderIP11ArrowSchemaEPT_S3_(ptr noundef %__p) #1 comdat {
entry:
  %__p.addr = alloca ptr, align 8
  store ptr %__p, ptr %__p.addr, align 8
  %0 = load ptr, ptr %__p.addr, align 8
  ret ptr %0
}

; Function Attrs: mustprogress nounwind uwtable
define linkonce_odr noundef ptr @_ZSt7launderI11ArrowSchemaEPT_S2_(ptr noundef %__p) #1 comdat {
entry:
  %__p.addr = alloca ptr, align 8
  store ptr %__p, ptr %__p.addr, align 8
  %0 = load ptr, ptr %__p.addr, align 8
  ret ptr %0
}

; Function Attrs: mustprogress nounwind uwtable
define linkonce_odr noundef ptr @_ZN5arrow8internal14AlignedStorageIP11ArrowSchemaE3getEv(ptr noundef nonnull align 8 dereferenceable(8) %this) #1 comdat align 2 {
entry:
  %this.addr = alloca ptr, align 8
  store ptr %this, ptr %this.addr, align 8
  %this1 = load ptr, ptr %this.addr, align 8
  %data_ = getelementptr inbounds %"class.arrow::internal::AlignedStorage.2", ptr %this1, i32 0, i32 0
  %call = call noundef ptr @_ZSt7launderIP11ArrowSchemaEPT_S3_(ptr noundef %data_) #12
  ret ptr %call
}

; Function Attrs: mustprogress nounwind uwtable
define linkonce_odr noundef ptr @_ZN5arrow8internal14AlignedStorageI11ArrowSchemaE3getEv(ptr noundef nonnull align 8 dereferenceable(72) %this) #1 comdat align 2 {
entry:
  %this.addr = alloca ptr, align 8
  store ptr %this, ptr %this.addr, align 8
  %this1 = load ptr, ptr %this.addr, align 8
  %data_ = getelementptr inbounds %"class.arrow::internal::AlignedStorage", ptr %this1, i32 0, i32 0
  %call = call noundef ptr @_ZSt7launderI11ArrowSchemaEPT_S2_(ptr noundef %data_) #12
  ret ptr %call
}

; Function Attrs: mustprogress nounwind uwtable
define linkonce_odr void @_ZN5arrow8internal14AlignedStorageIP11ArrowSchemaE22move_construct_severalILb1EEENSt9enable_ifIXT_EvE4typeEPS4_S9_mm(ptr noalias noundef %src, ptr noalias noundef %dest, i64 noundef %n, i64 noundef %memcpy_length) #1 comdat align 2 {
entry:
  %src.addr = alloca ptr, align 8
  %dest.addr = alloca ptr, align 8
  %n.addr = alloca i64, align 8
  %memcpy_length.addr = alloca i64, align 8
  store ptr %src, ptr %src.addr, align 8
  store ptr %dest, ptr %dest.addr, align 8
  store i64 %n, ptr %n.addr, align 8
  store i64 %memcpy_length, ptr %memcpy_length.addr, align 8
  %0 = load ptr, ptr %dest.addr, align 8
  %call = call noundef ptr @_ZN5arrow8internal14AlignedStorageIP11ArrowSchemaE3getEv(ptr noundef nonnull align 8 dereferenceable(8) %0) #12
  %1 = load ptr, ptr %src.addr, align 8
  %call1 = call noundef ptr @_ZN5arrow8internal14AlignedStorageIP11ArrowSchemaE3getEv(ptr noundef nonnull align 8 dereferenceable(8) %1) #12
  %2 = load i64, ptr %memcpy_length.addr, align 8
  %mul = mul i64 %2, 8
  call void @llvm.memcpy.p0.p0.i64(ptr align 8 %call, ptr align 8 %call1, i64 %mul, i1 false)
  ret void
}

; Function Attrs: mustprogress nounwind uwtable
define linkonce_odr void @_ZN5arrow8internal14AlignedStorageI11ArrowSchemaE22move_construct_severalILb1EEENSt9enable_ifIXT_EvE4typeEPS3_S8_mm(ptr noalias noundef %src, ptr noalias noundef %dest, i64 noundef %n, i64 noundef %memcpy_length) #1 comdat align 2 {
entry:
  %src.addr = alloca ptr, align 8
  %dest.addr = alloca ptr, align 8
  %n.addr = alloca i64, align 8
  %memcpy_length.addr = alloca i64, align 8
  store ptr %src, ptr %src.addr, align 8
  store ptr %dest, ptr %dest.addr, align 8
  store i64 %n, ptr %n.addr, align 8
  store i64 %memcpy_length, ptr %memcpy_length.addr, align 8
  %0 = load ptr, ptr %dest.addr, align 8
  %call = call noundef ptr @_ZN5arrow8internal14AlignedStorageI11ArrowSchemaE3getEv(ptr noundef nonnull align 8 dereferenceable(72) %0) #12
  %1 = load ptr, ptr %src.addr, align 8
  %call1 = call noundef ptr @_ZN5arrow8internal14AlignedStorageI11ArrowSchemaE3getEv(ptr noundef nonnull align 8 dereferenceable(72) %1) #12
  %2 = load i64, ptr %memcpy_length.addr, align 8
  %mul = mul i64 %2, 72
  call void @llvm.memcpy.p0.p0.i64(ptr align 8 %call, ptr align 8 %call1, i64 %mul, i1 false)
  ret void
}

; Function Attrs: mustprogress nounwind uwtable
define linkonce_odr void @_ZN5arrow8internal18SmallVectorStorageIP11ArrowSchemaLm4EE14move_constructEOS4_(ptr noundef nonnull align 8 dereferenceable(56) %this, ptr noundef nonnull align 8 dereferenceable(56) %other) #1 comdat align 2 {
entry:
  %this.addr = alloca ptr, align 8
  %other.addr = alloca ptr, align 8
  store ptr %this, ptr %this.addr, align 8
  store ptr %other, ptr %other.addr, align 8
  %this1 = load ptr, ptr %this.addr, align 8
  %0 = load ptr, ptr %other.addr, align 8
  %size_ = getelementptr inbounds %"struct.arrow::internal::SmallVectorStorage.1", ptr %0, i32 0, i32 1
  %1 = load i64, ptr %size_, align 8
  %size_2 = getelementptr inbounds %"struct.arrow::internal::SmallVectorStorage.1", ptr %this1, i32 0, i32 1
  store i64 %1, ptr %size_2, align 8
  %2 = load ptr, ptr %other.addr, align 8
  %dynamic_capacity_ = getelementptr inbounds %"struct.arrow::internal::SmallVectorStorage.1", ptr %2, i32 0, i32 3
  %3 = load i64, ptr %dynamic_capacity_, align 8
  %dynamic_capacity_3 = getelementptr inbounds %"struct.arrow::internal::SmallVectorStorage.1", ptr %this1, i32 0, i32 3
  store i64 %3, ptr %dynamic_capacity_3, align 8
  %dynamic_capacity_4 = getelementptr inbounds %"struct.arrow::internal::SmallVectorStorage.1", ptr %this1, i32 0, i32 3
  %4 = load i64, ptr %dynamic_capacity_4, align 8
  %tobool = icmp ne i64 %4, 0
  br i1 %tobool, label %if.then, label %if.else

if.then:                                          ; preds = %entry
  %5 = load ptr, ptr %other.addr, align 8
  %data_ = getelementptr inbounds %"struct.arrow::internal::SmallVectorStorage.1", ptr %5, i32 0, i32 2
  %6 = load ptr, ptr %data_, align 8
  %data_5 = getelementptr inbounds %"struct.arrow::internal::SmallVectorStorage.1", ptr %this1, i32 0, i32 2
  store ptr %6, ptr %data_5, align 8
  %7 = load ptr, ptr %other.addr, align 8
  %static_data_ = getelementptr inbounds %"struct.arrow::internal::SmallVectorStorage.1", ptr %7, i32 0, i32 0
  %arraydecay = getelementptr inbounds [4 x %"class.arrow::internal::AlignedStorage.2"], ptr %static_data_, i64 0, i64 0
  %8 = load ptr, ptr %other.addr, align 8
  %data_6 = getelementptr inbounds %"struct.arrow::internal::SmallVectorStorage.1", ptr %8, i32 0, i32 2
  store ptr %arraydecay, ptr %data_6, align 8
  %9 = load ptr, ptr %other.addr, align 8
  %dynamic_capacity_7 = getelementptr inbounds %"struct.arrow::internal::SmallVectorStorage.1", ptr %9, i32 0, i32 3
  store i64 0, ptr %dynamic_capacity_7, align 8
  %10 = load ptr, ptr %other.addr, align 8
  %size_8 = getelementptr inbounds %"struct.arrow::internal::SmallVectorStorage.1", ptr %10, i32 0, i32 1
  store i64 0, ptr %size_8, align 8
  br label %if.end16

if.else:                                          ; preds = %entry
  %size_9 = getelementptr inbounds %"struct.arrow::internal::SmallVectorStorage.1", ptr %this1, i32 0, i32 1
  %11 = load i64, ptr %size_9, align 8
  %cmp = icmp ne i64 %11, 0
  br i1 %cmp, label %if.then10, label %if.end

if.then10:                                        ; preds = %if.else
  %12 = load ptr, ptr %other.addr, align 8
  %static_data_11 = getelementptr inbounds %"struct.arrow::internal::SmallVectorStorage.1", ptr %12, i32 0, i32 0
  %arraydecay12 = getelementptr inbounds [4 x %"class.arrow::internal::AlignedStorage.2"], ptr %static_data_11, i64 0, i64 0
  %static_data_13 = getelementptr inbounds %"struct.arrow::internal::SmallVectorStorage.1", ptr %this1, i32 0, i32 0
  %arraydecay14 = getelementptr inbounds [4 x %"class.arrow::internal::AlignedStorage.2"], ptr %static_data_13, i64 0, i64 0
  %size_15 = getelementptr inbounds %"struct.arrow::internal::SmallVectorStorage.1", ptr %this1, i32 0, i32 1
  %13 = load i64, ptr %size_15, align 8
  call void @_ZN5arrow8internal14AlignedStorageIP11ArrowSchemaE22move_construct_severalILb1EEENSt9enable_ifIXT_EvE4typeEPS4_S9_mm(ptr noundef %arraydecay12, ptr noundef %arraydecay14, i64 noundef %13, i64 noundef 4) #12
  br label %if.end

if.end:                                           ; preds = %if.then10, %if.else
  br label %if.end16

if.end16:                                         ; preds = %if.end, %if.then
  ret void
}

; Function Attrs: mustprogress nounwind uwtable
define linkonce_odr void @_ZN5arrow8internal18SmallVectorStorageIP11ArrowSchemaLm4EEC2Ev(ptr noundef nonnull align 8 dereferenceable(56) %this) unnamed_addr #1 comdat align 2 {
entry:
  %this.addr = alloca ptr, align 8
  store ptr %this, ptr %this.addr, align 8
  %this1 = load ptr, ptr %this.addr, align 8
  %size_ = getelementptr inbounds %"struct.arrow::internal::SmallVectorStorage.1", ptr %this1, i32 0, i32 1
  store i64 0, ptr %size_, align 8
  %data_ = getelementptr inbounds %"struct.arrow::internal::SmallVectorStorage.1", ptr %this1, i32 0, i32 2
  %static_data_2 = getelementptr inbounds %"struct.arrow::internal::SmallVectorStorage.1", ptr %this1, i32 0, i32 0
  %arraydecay = getelementptr inbounds [4 x %"class.arrow::internal::AlignedStorage.2"], ptr %static_data_2, i64 0, i64 0
  store ptr %arraydecay, ptr %data_, align 8
  %dynamic_capacity_ = getelementptr inbounds %"struct.arrow::internal::SmallVectorStorage.1", ptr %this1, i32 0, i32 3
  store i64 0, ptr %dynamic_capacity_, align 8
  ret void
}

; Function Attrs: mustprogress nounwind uwtable
define linkonce_odr void @_ZN5arrow8internal18SmallVectorStorageI11ArrowSchemaLm1EE14move_constructEOS3_(ptr noundef nonnull align 8 dereferenceable(96) %this, ptr noundef nonnull align 8 dereferenceable(96) %other) #1 comdat align 2 {
entry:
  %this.addr = alloca ptr, align 8
  %other.addr = alloca ptr, align 8
  store ptr %this, ptr %this.addr, align 8
  store ptr %other, ptr %other.addr, align 8
  %this1 = load ptr, ptr %this.addr, align 8
  %0 = load ptr, ptr %other.addr, align 8
  %size_ = getelementptr inbounds %"struct.arrow::internal::SmallVectorStorage", ptr %0, i32 0, i32 1
  %1 = load i64, ptr %size_, align 8
  %size_2 = getelementptr inbounds %"struct.arrow::internal::SmallVectorStorage", ptr %this1, i32 0, i32 1
  store i64 %1, ptr %size_2, align 8
  %2 = load ptr, ptr %other.addr, align 8
  %dynamic_capacity_ = getelementptr inbounds %"struct.arrow::internal::SmallVectorStorage", ptr %2, i32 0, i32 3
  %3 = load i64, ptr %dynamic_capacity_, align 8
  %dynamic_capacity_3 = getelementptr inbounds %"struct.arrow::internal::SmallVectorStorage", ptr %this1, i32 0, i32 3
  store i64 %3, ptr %dynamic_capacity_3, align 8
  %dynamic_capacity_4 = getelementptr inbounds %"struct.arrow::internal::SmallVectorStorage", ptr %this1, i32 0, i32 3
  %4 = load i64, ptr %dynamic_capacity_4, align 8
  %tobool = icmp ne i64 %4, 0
  br i1 %tobool, label %if.then, label %if.else

if.then:                                          ; preds = %entry
  %5 = load ptr, ptr %other.addr, align 8
  %data_ = getelementptr inbounds %"struct.arrow::internal::SmallVectorStorage", ptr %5, i32 0, i32 2
  %6 = load ptr, ptr %data_, align 8
  %data_5 = getelementptr inbounds %"struct.arrow::internal::SmallVectorStorage", ptr %this1, i32 0, i32 2
  store ptr %6, ptr %data_5, align 8
  %7 = load ptr, ptr %other.addr, align 8
  %static_data_ = getelementptr inbounds %"struct.arrow::internal::SmallVectorStorage", ptr %7, i32 0, i32 0
  %arraydecay = getelementptr inbounds [1 x %"class.arrow::internal::AlignedStorage"], ptr %static_data_, i64 0, i64 0
  %8 = load ptr, ptr %other.addr, align 8
  %data_6 = getelementptr inbounds %"struct.arrow::internal::SmallVectorStorage", ptr %8, i32 0, i32 2
  store ptr %arraydecay, ptr %data_6, align 8
  %9 = load ptr, ptr %other.addr, align 8
  %dynamic_capacity_7 = getelementptr inbounds %"struct.arrow::internal::SmallVectorStorage", ptr %9, i32 0, i32 3
  store i64 0, ptr %dynamic_capacity_7, align 8
  %10 = load ptr, ptr %other.addr, align 8
  %size_8 = getelementptr inbounds %"struct.arrow::internal::SmallVectorStorage", ptr %10, i32 0, i32 1
  store i64 0, ptr %size_8, align 8
  br label %if.end16

if.else:                                          ; preds = %entry
  %size_9 = getelementptr inbounds %"struct.arrow::internal::SmallVectorStorage", ptr %this1, i32 0, i32 1
  %11 = load i64, ptr %size_9, align 8
  %cmp = icmp ne i64 %11, 0
  br i1 %cmp, label %if.then10, label %if.end

if.then10:                                        ; preds = %if.else
  %12 = load ptr, ptr %other.addr, align 8
  %static_data_11 = getelementptr inbounds %"struct.arrow::internal::SmallVectorStorage", ptr %12, i32 0, i32 0
  %arraydecay12 = getelementptr inbounds [1 x %"class.arrow::internal::AlignedStorage"], ptr %static_data_11, i64 0, i64 0
  %static_data_13 = getelementptr inbounds %"struct.arrow::internal::SmallVectorStorage", ptr %this1, i32 0, i32 0
  %arraydecay14 = getelementptr inbounds [1 x %"class.arrow::internal::AlignedStorage"], ptr %static_data_13, i64 0, i64 0
  %size_15 = getelementptr inbounds %"struct.arrow::internal::SmallVectorStorage", ptr %this1, i32 0, i32 1
  %13 = load i64, ptr %size_15, align 8
  call void @_ZN5arrow8internal14AlignedStorageI11ArrowSchemaE22move_construct_severalILb1EEENSt9enable_ifIXT_EvE4typeEPS3_S8_mm(ptr noundef %arraydecay12, ptr noundef %arraydecay14, i64 noundef %13, i64 noundef 1) #12
  br label %if.end

if.end:                                           ; preds = %if.then10, %if.else
  br label %if.end16

if.end16:                                         ; preds = %if.end, %if.then
  ret void
}

; Function Attrs: mustprogress nounwind uwtable
define linkonce_odr void @_ZN5arrow8internal18SmallVectorStorageI11ArrowSchemaLm1EEC2Ev(ptr noundef nonnull align 8 dereferenceable(96) %this) unnamed_addr #1 comdat align 2 {
entry:
  %this.addr = alloca ptr, align 8
  store ptr %this, ptr %this.addr, align 8
  %this1 = load ptr, ptr %this.addr, align 8
  %size_ = getelementptr inbounds %"struct.arrow::internal::SmallVectorStorage", ptr %this1, i32 0, i32 1
  store i64 0, ptr %size_, align 8
  %data_ = getelementptr inbounds %"struct.arrow::internal::SmallVectorStorage", ptr %this1, i32 0, i32 2
  %static_data_2 = getelementptr inbounds %"struct.arrow::internal::SmallVectorStorage", ptr %this1, i32 0, i32 0
  %arraydecay = getelementptr inbounds [1 x %"class.arrow::internal::AlignedStorage"], ptr %static_data_2, i64 0, i64 0
  store ptr %arraydecay, ptr %data_, align 8
  %dynamic_capacity_ = getelementptr inbounds %"struct.arrow::internal::SmallVectorStorage", ptr %this1, i32 0, i32 3
  store i64 0, ptr %dynamic_capacity_, align 8
  ret void
}

; Function Attrs: mustprogress nounwind uwtable
define linkonce_odr void @_ZN5arrow8internal16StaticVectorImplIP11ArrowSchemaLm4ENS0_18SmallVectorStorageIS3_Lm4EEEEC2EOS6_(ptr noundef nonnull align 8 dereferenceable(56) %this, ptr noundef nonnull align 8 dereferenceable(56) %other) unnamed_addr #1 comdat align 2 {
entry:
  %this.addr = alloca ptr, align 8
  %other.addr = alloca ptr, align 8
  store ptr %this, ptr %this.addr, align 8
  store ptr %other, ptr %other.addr, align 8
  %this1 = load ptr, ptr %this.addr, align 8
  %storage_ = getelementptr inbounds %"class.arrow::internal::StaticVectorImpl.0", ptr %this1, i32 0, i32 0
  call void @_ZN5arrow8internal18SmallVectorStorageIP11ArrowSchemaLm4EEC2Ev(ptr noundef nonnull align 8 dereferenceable(56) %storage_) #12
  %storage_2 = getelementptr inbounds %"class.arrow::internal::StaticVectorImpl.0", ptr %this1, i32 0, i32 0
  %0 = load ptr, ptr %other.addr, align 8
  %storage_3 = getelementptr inbounds %"class.arrow::internal::StaticVectorImpl.0", ptr %0, i32 0, i32 0
  call void @_ZN5arrow8internal18SmallVectorStorageIP11ArrowSchemaLm4EE14move_constructEOS4_(ptr noundef nonnull align 8 dereferenceable(56) %storage_2, ptr noundef nonnull align 8 dereferenceable(56) %storage_3) #12
  ret void
}

; Function Attrs: mustprogress nounwind uwtable
define linkonce_odr void @_ZN5arrow8internal16StaticVectorImplI11ArrowSchemaLm1ENS0_18SmallVectorStorageIS2_Lm1EEEEC2EOS5_(ptr noundef nonnull align 8 dereferenceable(96) %this, ptr noundef nonnull align 8 dereferenceable(96) %other) unnamed_addr #1 comdat align 2 {
entry:
  %this.addr = alloca ptr, align 8
  %other.addr = alloca ptr, align 8
  store ptr %this, ptr %this.addr, align 8
  store ptr %other, ptr %other.addr, align 8
  %this1 = load ptr, ptr %this.addr, align 8
  %storage_ = getelementptr inbounds %"class.arrow::internal::StaticVectorImpl", ptr %this1, i32 0, i32 0
  call void @_ZN5arrow8internal18SmallVectorStorageI11ArrowSchemaLm1EEC2Ev(ptr noundef nonnull align 8 dereferenceable(96) %storage_) #12
  %storage_2 = getelementptr inbounds %"class.arrow::internal::StaticVectorImpl", ptr %this1, i32 0, i32 0
  %0 = load ptr, ptr %other.addr, align 8
  %storage_3 = getelementptr inbounds %"class.arrow::internal::StaticVectorImpl", ptr %0, i32 0, i32 0
  call void @_ZN5arrow8internal18SmallVectorStorageI11ArrowSchemaLm1EE14move_constructEOS3_(ptr noundef nonnull align 8 dereferenceable(96) %storage_2, ptr noundef nonnull align 8 dereferenceable(96) %storage_3) #12
  ret void
}

; Function Attrs: mustprogress nounwind uwtable
define internal void @_ZN5arrow12_GLOBAL__N_125ExportedSchemaPrivateDataC2EOS1_(ptr noundef nonnull align 8 dereferenceable(320) %this, ptr noundef nonnull align 8 dereferenceable(320) %0) unnamed_addr #1 align 2 {
entry:
  %this.addr = alloca ptr, align 8
  %.addr = alloca ptr, align 8
  store ptr %this, ptr %this.addr, align 8
  store ptr %0, ptr %.addr, align 8
  %this1 = load ptr, ptr %this.addr, align 8
  %format_ = getelementptr inbounds %"struct.arrow::(anonymous namespace)::ExportedSchemaPrivateData", ptr %this1, i32 0, i32 0
  %1 = load ptr, ptr %.addr, align 8
  %format_2 = getelementptr inbounds %"struct.arrow::(anonymous namespace)::ExportedSchemaPrivateData", ptr %1, i32 0, i32 0
  call void @_ZNSt7__cxx1112basic_stringIcSt11char_traitsIcESaIcEEC1EOS4_(ptr noundef nonnull align 8 dereferenceable(32) %format_, ptr noundef nonnull align 8 dereferenceable(32) %format_2) #12
  %name_ = getelementptr inbounds %"struct.arrow::(anonymous namespace)::ExportedSchemaPrivateData", ptr %this1, i32 0, i32 1
  %2 = load ptr, ptr %.addr, align 8
  %name_3 = getelementptr inbounds %"struct.arrow::(anonymous namespace)::ExportedSchemaPrivateData", ptr %2, i32 0, i32 1
  call void @_ZNSt7__cxx1112basic_stringIcSt11char_traitsIcESaIcEEC1EOS4_(ptr noundef nonnull align 8 dereferenceable(32) %name_, ptr noundef nonnull align 8 dereferenceable(32) %name_3) #12
  %metadata_ = getelementptr inbounds %"struct.arrow::(anonymous namespace)::ExportedSchemaPrivateData", ptr %this1, i32 0, i32 2
  %3 = load ptr, ptr %.addr, align 8
  %metadata_4 = getelementptr inbounds %"struct.arrow::(anonymous namespace)::ExportedSchemaPrivateData", ptr %3, i32 0, i32 2
  call void @_ZNSt7__cxx1112basic_stringIcSt11char_traitsIcESaIcEEC1EOS4_(ptr noundef nonnull align 8 dereferenceable(32) %metadata_, ptr noundef nonnull align 8 dereferenceable(32) %metadata_4) #12
  %dictionary_ = getelementptr inbounds %"struct.arrow::(anonymous namespace)::ExportedSchemaPrivateData", ptr %this1, i32 0, i32 3
  %4 = load ptr, ptr %.addr, align 8
  %dictionary_5 = getelementptr inbounds %"struct.arrow::(anonymous namespace)::ExportedSchemaPrivateData", ptr %4, i32 0, i32 3
  call void @llvm.memcpy.p0.p0.i64(ptr align 8 %dictionary_, ptr align 8 %dictionary_5, i64 72, i1 false)
  %children_ = getelementptr inbounds %"struct.arrow::(anonymous namespace)::ExportedSchemaPrivateData", ptr %this1, i32 0, i32 4
  %5 = load ptr, ptr %.addr, align 8
  %children_6 = getelementptr inbounds %"struct.arrow::(anonymous namespace)::ExportedSchemaPrivateData", ptr %5, i32 0, i32 4
  call void @_ZN5arrow8internal16StaticVectorImplI11ArrowSchemaLm1ENS0_18SmallVectorStorageIS2_Lm1EEEEC2EOS5_(ptr noundef nonnull align 8 dereferenceable(96) %children_, ptr noundef nonnull align 8 dereferenceable(96) %children_6) #12
  %child_pointers_ = getelementptr inbounds %"struct.arrow::(anonymous namespace)::ExportedSchemaPrivateData", ptr %this1, i32 0, i32 5
  %6 = load ptr, ptr %.addr, align 8
  %child_pointers_7 = getelementptr inbounds %"struct.arrow::(anonymous namespace)::ExportedSchemaPrivateData", ptr %6, i32 0, i32 5
  call void @_ZN5arrow8internal16StaticVectorImplIP11ArrowSchemaLm4ENS0_18SmallVectorStorageIS3_Lm4EEEEC2EOS6_(ptr noundef nonnull align 8 dereferenceable(56) %child_pointers_, ptr noundef nonnull align 8 dereferenceable(56) %child_pointers_7) #12
  ret void
}