; Function Attrs: mustprogress nounwind uwtable
define internal fastcc void @_ZN5arrow12_GLOBAL__N_125ExportedSchemaPrivateDataC2EOS1_(ptr noundef nonnull align 8 dereferenceable(320) %this, ptr noundef nonnull align 8 dereferenceable(320) %0) unnamed_addr #1 align 2 {
entry:
  tail call void @_ZNSt7__cxx1112basic_stringIcSt11char_traitsIcESaIcEEC1EOS4_(ptr noundef nonnull align 8 dereferenceable(32) %this, ptr noundef nonnull align 8 dereferenceable(32) %0) #24
  %name_ = getelementptr inbounds i8, ptr %this, i64 32
  %name_3 = getelementptr inbounds i8, ptr %0, i64 32
  tail call void @_ZNSt7__cxx1112basic_stringIcSt11char_traitsIcESaIcEEC1EOS4_(ptr noundef nonnull align 8 dereferenceable(32) %name_, ptr noundef nonnull align 8 dereferenceable(32) %name_3) #24
  %metadata_ = getelementptr inbounds i8, ptr %this, i64 64
  %metadata_4 = getelementptr inbounds i8, ptr %0, i64 64
  tail call void @_ZNSt7__cxx1112basic_stringIcSt11char_traitsIcESaIcEEC1EOS4_(ptr noundef nonnull align 8 dereferenceable(32) %metadata_, ptr noundef nonnull align 8 dereferenceable(32) %metadata_4) #24
  %dictionary_ = getelementptr inbounds i8, ptr %this, i64 96
  %dictionary_5 = getelementptr inbounds i8, ptr %0, i64 96
  tail call void @llvm.memcpy.p0.p0.i64(ptr noundef nonnull align 8 dereferenceable(72) %dictionary_, ptr noundef nonnull align 8 dereferenceable(72) %dictionary_5, i64 72, i1 false)
  %children_ = getelementptr inbounds i8, ptr %this, i64 168
  %children_6 = getelementptr inbounds i8, ptr %0, i64 168
  %size_.i.i = getelementptr inbounds i8, ptr %this, i64 240
  store i64 0, ptr %size_.i.i, align 8
  %data_.i.i = getelementptr inbounds i8, ptr %this, i64 248
  store ptr %children_, ptr %data_.i.i, align 8
  %dynamic_capacity_.i.i = getelementptr inbounds i8, ptr %this, i64 256
  store i64 0, ptr %dynamic_capacity_.i.i, align 8
  %size_.i1.i = getelementptr inbounds i8, ptr %0, i64 240
  %1 = load i64, ptr %size_.i1.i, align 8
  store i64 %1, ptr %size_.i.i, align 8
  %dynamic_capacity_.i2.i = getelementptr inbounds i8, ptr %0, i64 256
  %2 = load i64, ptr %dynamic_capacity_.i2.i, align 8
  store i64 %2, ptr %dynamic_capacity_.i.i, align 8
  %tobool.not.i.i = icmp eq i64 %2, 0
  br i1 %tobool.not.i.i, label %if.else.i.i, label %if.then.i.i

if.then.i.i:                                      ; preds = %entry
  %data_.i3.i = getelementptr inbounds i8, ptr %0, i64 248
  %3 = load ptr, ptr %data_.i3.i, align 8
  store ptr %3, ptr %data_.i.i, align 8
  store ptr %children_6, ptr %data_.i3.i, align 8
  store i64 0, ptr %dynamic_capacity_.i2.i, align 8
  store i64 0, ptr %size_.i1.i, align 8
  br label %_ZN5arrow8internal16StaticVectorImplI11ArrowSchemaLm1ENS0_18SmallVectorStorageIS2_Lm1EEEEC2EOS5_.exit

if.else.i.i:                                      ; preds = %entry
  %cmp.not.i.i = icmp eq i64 %1, 0
  br i1 %cmp.not.i.i, label %_ZN5arrow8internal16StaticVectorImplI11ArrowSchemaLm1ENS0_18SmallVectorStorageIS2_Lm1EEEEC2EOS5_.exit, label %if.then10.i.i

if.then10.i.i:                                    ; preds = %if.else.i.i
  tail call void @llvm.memcpy.p0.p0.i64(ptr noundef nonnull align 8 dereferenceable(72) %children_, ptr noundef nonnull align 8 dereferenceable(72) %children_6, i64 72, i1 false), !alias.scope !799
  br label %_ZN5arrow8internal16StaticVectorImplI11ArrowSchemaLm1ENS0_18SmallVectorStorageIS2_Lm1EEEEC2EOS5_.exit

_ZN5arrow8internal16StaticVectorImplI11ArrowSchemaLm1ENS0_18SmallVectorStorageIS2_Lm1EEEEC2EOS5_.exit: ; preds = %if.then.i.i, %if.else.i.i, %if.then10.i.i
  %child_pointers_ = getelementptr inbounds i8, ptr %this, i64 264
  %child_pointers_7 = getelementptr inbounds i8, ptr %0, i64 264
  %size_.i.i6 = getelementptr inbounds i8, ptr %this, i64 296
  store i64 0, ptr %size_.i.i6, align 8
  %data_.i.i7 = getelementptr inbounds i8, ptr %this, i64 304
  store ptr %child_pointers_, ptr %data_.i.i7, align 8
  %dynamic_capacity_.i.i8 = getelementptr inbounds i8, ptr %this, i64 312
  store i64 0, ptr %dynamic_capacity_.i.i8, align 8
  %size_.i1.i9 = getelementptr inbounds i8, ptr %0, i64 296
  %4 = load i64, ptr %size_.i1.i9, align 8
  store i64 %4, ptr %size_.i.i6, align 8
  %dynamic_capacity_.i2.i10 = getelementptr inbounds i8, ptr %0, i64 312
  %5 = load i64, ptr %dynamic_capacity_.i2.i10, align 8
  store i64 %5, ptr %dynamic_capacity_.i.i8, align 8
  %tobool.not.i.i11 = icmp eq i64 %5, 0
  br i1 %tobool.not.i.i11, label %if.else.i.i14, label %if.then.i.i12

if.then.i.i12:                                    ; preds = %_ZN5arrow8internal16StaticVectorImplI11ArrowSchemaLm1ENS0_18SmallVectorStorageIS2_Lm1EEEEC2EOS5_.exit
  %data_.i3.i13 = getelementptr inbounds i8, ptr %0, i64 304
  %6 = load ptr, ptr %data_.i3.i13, align 8
  store ptr %6, ptr %data_.i.i7, align 8
  store ptr %child_pointers_7, ptr %data_.i3.i13, align 8
  store i64 0, ptr %dynamic_capacity_.i2.i10, align 8
  store i64 0, ptr %size_.i1.i9, align 8
  br label %_ZN5arrow8internal16StaticVectorImplIP11ArrowSchemaLm4ENS0_18SmallVectorStorageIS3_Lm4EEEEC2EOS6_.exit

if.else.i.i14:                                    ; preds = %_ZN5arrow8internal16StaticVectorImplI11ArrowSchemaLm1ENS0_18SmallVectorStorageIS2_Lm1EEEEC2EOS5_.exit
  %cmp.not.i.i15 = icmp eq i64 %4, 0
  br i1 %cmp.not.i.i15, label %_ZN5arrow8internal16StaticVectorImplIP11ArrowSchemaLm4ENS0_18SmallVectorStorageIS3_Lm4EEEEC2EOS6_.exit, label %if.then10.i.i16

if.then10.i.i16:                                  ; preds = %if.else.i.i14
  tail call void @llvm.memcpy.p0.p0.i64(ptr noundef nonnull align 8 dereferenceable(32) %child_pointers_, ptr noundef nonnull align 8 dereferenceable(32) %child_pointers_7, i64 32, i1 false), !alias.scope !803
  br label %_ZN5arrow8internal16StaticVectorImplIP11ArrowSchemaLm4ENS0_18SmallVectorStorageIS3_Lm4EEEEC2EOS6_.exit

_ZN5arrow8internal16StaticVectorImplIP11ArrowSchemaLm4ENS0_18SmallVectorStorageIS3_Lm4EEEEC2EOS6_.exit: ; preds = %if.then.i.i12, %if.else.i.i14, %if.then10.i.i16
  ret void
}